(dp0
S'Sc22a_S9_R1_Full'
p1
(dp2
S'hkb_index'
p3
I678
ssS'Sc21b_S22_R2_HKBS'
p4
(dp5
S'hkb_index'
p6
I-333
ssS'Sc21b_S23_R3_HKBS'
p7
(dp8
S'hkb_index'
p9
I136
ssS'Sc21b_S21_R1_HKBS'
p10
(dp11
S'hkb_index'
p12
I368
ssS'Sc21a_S13_R1_HKBS'
p13
(dp14
S'hkb_index'
p15
I537
ssS'Sc21a_S14_R2_HKBS'
p16
(dp17
S'hkb_index'
p18
I752
ssS'Sc20_S6_R2_HKBS'
p19
(dp20
S'hkb_index'
p21
I-157
sS'bs_index'
p22
I-124
ssS'Sc21a_S15_R3_HKBS'
p23
(dp24
S'hkb_index'
p25
I438
ssS'Sc20_S5_R1_HKBS'
p26
(dp27
S'video_sec'
p28
cnumpy.core.multiarray
scalar
p29
(cnumpy
dtype
p30
(S'f8'
p31
I0
I1
tp32
Rp33
(I3
S'<'
p34
NNNI-1
I-1
I0
tp35
bS'\x86"H\x8e\xa0O@@'
p36
tp37
Rp38
sS'hkb_index'
p39
I-148
ssS'Sc21a_S16_R4_HKBS'
p40
(dp41
S'hkb_index'
p42
I224
ss.